; Function Attrs: nounwind uwtable
define void @lv_group_delete(ptr noundef %0) local_unnamed_addr #0 {
  %.not = icmp eq ptr %0, null
  br i1 %.not, label %.preheader, label %2

.preheader:                                       ; preds = %1, %.preheader
  br label %.preheader

2:                                                ; preds = %1
  %3 = getelementptr inbounds nuw i8, ptr %0, i64 24
  %4 = load ptr, ptr %3, align 8, !tbaa !3
  %.not24 = icmp eq ptr %4, null
  br i1 %.not24, label %16, label %5

5:                                                ; preds = %2
  %6 = load ptr, ptr %4, align 8, !tbaa !11
  %7 = tail call ptr @lv_indev_get_next(ptr noundef null) #10
  %.not20.i = icmp eq ptr %7, null
  br i1 %.not20.i, label %get_indev.exit, label %.lr.ph.i

.lr.ph.i:                                         ; preds = %5, %9
  %.01122.i = phi ptr [ %12, %9 ], [ %7, %5 ]
  %.01321.i = phi ptr [ %spec.select.i, %9 ], [ null, %5 ]
  %8 = tail call i32 @lv_indev_get_type(ptr noundef nonnull %.01122.i) #10
  %.not16.i = icmp eq i32 %8, 1
  br i1 %.not16.i, label %get_indev.exit, label %9

9:                                                ; preds = %.lr.ph.i
  %10 = tail call ptr @lv_indev_get_group(ptr noundef nonnull %.01122.i) #10
  %11 = icmp eq ptr %10, %0
  %spec.select.i = select i1 %11, ptr %.01122.i, ptr %.01321.i
  %12 = tail call ptr @lv_indev_get_next(ptr noundef nonnull %.01122.i) #10
  %.not.i = icmp eq ptr %12, null
  br i1 %.not.i, label %get_indev.exit, label %.lr.ph.i, !llvm.loop !12

get_indev.exit:                                   ; preds = %.lr.ph.i, %9, %5
  %.2.i = phi ptr [ null, %5 ], [ %spec.select.i, %9 ], [ %.01122.i, %.lr.ph.i ]
  %13 = tail call i32 @lv_obj_send_event(ptr noundef %6, i32 noundef 20, ptr noundef %.2.i) #10
  %14 = load ptr, ptr %3, align 8, !tbaa !3
  %15 = load ptr, ptr %14, align 8, !tbaa !11
  tail call void @lv_obj_invalidate(ptr noundef %15) #10
  br label %16

16:                                               ; preds = %get_indev.exit, %2
  %17 = tail call ptr @lv_ll_get_head(ptr noundef nonnull %0) #10
  %.not2528 = icmp eq ptr %17, null
  br i1 %.not2528, label %._crit_edge, label %.lr.ph

.lr.ph:                                           ; preds = %16, %23
  %.02029 = phi ptr [ %24, %23 ], [ %17, %16 ]
  %18 = load ptr, ptr %.02029, align 8, !tbaa !11
  %19 = getelementptr inbounds nuw i8, ptr %18, i64 16
  %20 = load ptr, ptr %19, align 8, !tbaa !14
  %.not27 = icmp eq ptr %20, null
  br i1 %.not27, label %23, label %21

21:                                               ; preds = %.lr.ph
  %22 = getelementptr inbounds nuw i8, ptr %20, i64 8
  store ptr null, ptr %22, align 8, !tbaa !18
  br label %23

23:                                               ; preds = %.lr.ph, %21
  %24 = tail call ptr @lv_ll_get_next(ptr noundef nonnull %0, ptr noundef nonnull %.02029) #10
  %.not25 = icmp eq ptr %24, null
  br i1 %.not25, label %._crit_edge, label %.lr.ph, !llvm.loop !24

._crit_edge:                                      ; preds = %23, %16
  %25 = tail call ptr @lv_indev_get_next(ptr noundef null) #10
  %.not2630 = icmp eq ptr %25, null
  br i1 %.not2630, label %._crit_edge34, label %.lr.ph33

.lr.ph33:                                         ; preds = %._crit_edge, %29
  %.031 = phi ptr [ %30, %29 ], [ %25, %._crit_edge ]
  %26 = tail call ptr @lv_indev_get_group(ptr noundef nonnull %.031) #10
  %27 = icmp eq ptr %26, %0
  br i1 %27, label %28, label %29

28:                                               ; preds = %.lr.ph33
  tail call void @lv_indev_set_group(ptr noundef nonnull %.031, ptr noundef null) #10
  br label %29

29:                                               ; preds = %28, %.lr.ph33
  %30 = tail call ptr @lv_indev_get_next(ptr noundef nonnull %.031) #10
  %.not26 = icmp eq ptr %30, null
  br i1 %.not26, label %._crit_edge34, label %.lr.ph33, !llvm.loop !25

._crit_edge34:                                    ; preds = %29, %._crit_edge
  %31 = load ptr, ptr getelementptr inbounds nuw (i8, ptr @lv_global, i64 120), align 8, !tbaa !26
  %32 = icmp eq ptr %0, %31
  br i1 %32, label %33, label %34

33:                                               ; preds = %._crit_edge34
  store ptr null, ptr getelementptr inbounds nuw (i8, ptr @lv_global, i64 120), align 8, !tbaa !26
  br label %34

34:                                               ; preds = %33, %._crit_edge34
  tail call void @lv_ll_clear(ptr noundef nonnull %0) #10
  tail call void @lv_ll_remove(ptr noundef nonnull getelementptr inbounds nuw (i8, ptr @lv_global, i64 96), ptr noundef nonnull %0) #10
  tail call void @lv_free(ptr noundef nonnull %0) #10
  ret void
}